ccopy_reg
_reconstructor
p0
(cnltk.classify.decisiontree
DecisionTreeClassifier
p1
c__builtin__
object
p2
Ntp3
Rp4
(dp5
S'_fname'
p6
Vcontains(would)
p7
sS'_label'
p8
I0
sS'_decisions'
p9
(dp10
I01
g0
(g1
g2
Ntp11
Rp12
(dp13
g6
Vcontains(amenities)
p14
sg8
I1
sg9
(dp15
I01
g0
(g1
g2
Ntp16
Rp17
(dp18
g6
Nsg8
I0
sg9
NsS'_default'
p19
NsbsNg0
(g1
g2
Ntp20
Rp21
(dp22
g6
Nsg8
I1
sg9
Nsg19
Nsbssg19
NsbsNg0
(g1
g2
Ntp23
Rp24
(dp25
g6
Vcontains(must)
p26
sg8
I0
sg9
(dp27
I01
g0
(g1
g2
Ntp28
Rp29
(dp30
g6
Vcontains(negotiable)
p31
sg8
I1
sg9
(dp32
I01
g0
(g1
g2
Ntp33
Rp34
(dp35
g6
Nsg8
I0
sg9
Nsg19
NsbsNg0
(g1
g2
Ntp36
Rp37
(dp38
g6
Nsg8
I1
sg9
Nsg19
Nsbssg19
NsbsNg0
(g1
g2
Ntp39
Rp40
(dp41
g6
Vcontains(small)
p42
sg8
I0
sg9
(dp43
I01
g0
(g1
g2
Ntp44
Rp45
(dp46
g6
Nsg8
I1
sg9
Nsg19
NsbsNg0
(g1
g2
Ntp47
Rp48
(dp49
g6
Nsg8
I0
sg9
Nsg19
Nsbssg19
Nsbssg19
Nsbssg19
Nsb.